target datalayout = "e-m:e-p270:32:32-p271:32:32-p272:64:64-i64:64-i128:128-f80:128-n8:16:32:64-S128"
target triple = "x86_64-pc-linux-gnu"

%struct.MXFLocalTagPair = type { i32, [16 x i8] }
%struct.AVFormatContext = type { ptr, ptr, ptr, ptr, ptr, i32, i32, ptr, i32, ptr, i32, ptr, ptr, i64, i64, i64, i32, i32, i32, i64, i64, ptr, i32, i32, ptr, i32, i32, i32, i32, ptr, i64, i32, i32, %struct.AVIOInterruptCB, i32, i32, i32, i32, i64, i32, i32, i32, i32, i32, i32, i32, i32, i32, i32, i32, i32, i64, i32, i32, i32, i32, i32, ptr, ptr, ptr, ptr, i32, ptr, ptr, ptr, ptr, i32, ptr, ptr, i64, ptr, ptr, ptr, i64 }
%struct.AVIOInterruptCB = type { ptr, ptr }
%struct.AVRational = type { i32, i32 }
%struct.MXFContext = type { ptr, i64, i32, %struct.AVRational, i32, ptr, i32, i64, i8, i32, ptr, i32, i32, i64, %struct.AVTimecode, ptr, i32, i32, i32, i64, i32, [16 x i8], i32, i32, i32, %struct.AVRational, i32, i32, i32, [127 x i8], %struct.MXFStreamContext }
%struct.AVTimecode = type { i32, i32, %struct.AVRational, i32 }
%struct.MXFStreamContext = type { i64, [16 x i8], i32, ptr, ptr, i32, i32, i32, i32, i32, i32, i32, i32, i32, %struct.AVRational, i32, i32, i32, i32, i32, i32, i32, i32, i32, i32, %struct.j2k_info_t }
%struct.j2k_info_t = type { i16, i16, i32, i32, i32, i32, i32, i32, i32, i32, [12 x i8] }

@.str.45 = private unnamed_addr constant [30 x i8] c"Assertion %s failed at %s:%d\0A\00", align 1
@.str.47 = private unnamed_addr constant [21 x i8] c"libavformat/mxfenc.c\00", align 1
@.str.57 = private unnamed_addr constant [61 x i8] c"0 && \22you forgot to add your new tag to mxf_local_tag_batch\22\00", align 1
@.str.61 = private unnamed_addr constant [50 x i8] c"mxf->unused_tags[pair - mxf_local_tag_batch] == 0\00", align 1

; Function Attrs: nounwind uwtable
define internal ptr @mxf_lookup_local_tag(i32 noundef %0) #0 {
  %2 = alloca ptr, align 8
  %3 = alloca i32, align 4
  %4 = alloca i32, align 4
  %5 = alloca i32, align 4
  store i32 %0, ptr %3, align 4, !tbaa !57
  call void @llvm.lifetime.start.p0(i64 4, ptr %4) #13
  store i32 0, ptr %4, align 4, !tbaa !57
  br label %6

6:                                                ; preds = %24, %1
  %7 = load i32, ptr %4, align 4, !tbaa !57
  %8 = sext i32 %7 to i64
  %9 = icmp ult i64 %8, 127
  br i1 %9, label %11, label %10

10:                                               ; preds = %6
  store i32 2, ptr %5, align 4
  br label %27

11:                                               ; preds = %6
  %12 = load i32, ptr %4, align 4, !tbaa !57
  %13 = sext i32 %12 to i64
  %14 = getelementptr inbounds [127 x %struct.MXFLocalTagPair], ptr @mxf_local_tag_batch, i64 0, i64 %13
  %15 = getelementptr inbounds nuw %struct.MXFLocalTagPair, ptr %14, i32 0, i32 0
  %16 = load i32, ptr %15, align 4, !tbaa !239
  %17 = load i32, ptr %3, align 4, !tbaa !57
  %18 = icmp eq i32 %16, %17
  br i1 %18, label %19, label %23

19:                                               ; preds = %11
  %20 = load i32, ptr %4, align 4, !tbaa !57
  %21 = sext i32 %20 to i64
  %22 = getelementptr inbounds [127 x %struct.MXFLocalTagPair], ptr @mxf_local_tag_batch, i64 0, i64 %21
  store ptr %22, ptr %2, align 8
  store i32 1, ptr %5, align 4
  br label %27

23:                                               ; preds = %11
  br label %24

24:                                               ; preds = %23
  %25 = load i32, ptr %4, align 4, !tbaa !57
  %26 = add nsw i32 %25, 1
  store i32 %26, ptr %4, align 4, !tbaa !57
  br label %6, !llvm.loop !254

27:                                               ; preds = %19, %10
  call void @llvm.lifetime.end.p0(i64 4, ptr %4) #13
  %28 = load i32, ptr %5, align 4
  switch i32 %28, label %34 [
    i32 2, label %29
    i32 1, label %32
  ]

29:                                               ; preds = %27
  br label %30

30:                                               ; preds = %29
  call void (ptr, i32, ptr, ...) @av_log(ptr noundef null, i32 noundef 0, ptr noundef @.str.45, ptr noundef @.str.57, ptr noundef @.str.47, i32 noundef 571)
  call void @abort() #16
  unreachable

31:                                               ; No predecessors!
  store ptr null, ptr %2, align 8
  br label %32

32:                                               ; preds = %31, %27
  %33 = load ptr, ptr %2, align 8
  ret ptr %33

34:                                               ; preds = %27
  unreachable
}

; Function Attrs: nounwind uwtable
define internal void @mxf_write_local_tag(ptr noundef %0, i32 noundef %1, i32 noundef %2) #0 {
  %4 = alloca ptr, align 8
  %5 = alloca i32, align 4
  %6 = alloca i32, align 4
  %7 = alloca ptr, align 8
  %8 = alloca ptr, align 8
  %9 = alloca ptr, align 8
  store ptr %0, ptr %4, align 8, !tbaa !4
  store i32 %1, ptr %5, align 4, !tbaa !57
  store i32 %2, ptr %6, align 4, !tbaa !57
  call void @llvm.lifetime.start.p0(i64 8, ptr %7) #13
  %10 = load ptr, ptr %4, align 8, !tbaa !4
  %11 = getelementptr inbounds nuw %struct.AVFormatContext, ptr %10, i32 0, i32 3
  %12 = load ptr, ptr %11, align 8, !tbaa !11
  store ptr %12, ptr %7, align 8, !tbaa !28
  call void @llvm.lifetime.start.p0(i64 8, ptr %8) #13
  %13 = load ptr, ptr %4, align 8, !tbaa !4
  %14 = getelementptr inbounds nuw %struct.AVFormatContext, ptr %13, i32 0, i32 4
  %15 = load ptr, ptr %14, align 8, !tbaa !30
  store ptr %15, ptr %8, align 8, !tbaa !31
  call void @llvm.lifetime.start.p0(i64 8, ptr %9) #13
  %16 = load i32, ptr %6, align 4, !tbaa !57
  %17 = call ptr @mxf_lookup_local_tag(i32 noundef %16)
  store ptr %17, ptr %9, align 8, !tbaa !251
  br label %18

18:                                               ; preds = %3
  %19 = load ptr, ptr %7, align 8, !tbaa !28
  %20 = getelementptr inbounds nuw %struct.MXFContext, ptr %19, i32 0, i32 29
  %21 = load ptr, ptr %9, align 8, !tbaa !251
  %22 = ptrtoint ptr %21 to i64
  %23 = sub i64 %22, ptrtoint (ptr @mxf_local_tag_batch to i64)
  %24 = sdiv exact i64 %23, 20
  %25 = getelementptr inbounds [127 x i8], ptr %20, i64 0, i64 %24
  %26 = load i8, ptr %25, align 1, !tbaa !132
  %27 = zext i8 %26 to i32
  %28 = icmp eq i32 %27, 0
  br i1 %28, label %30, label %29

29:                                               ; preds = %18
  call void (ptr, i32, ptr, ...) @av_log(ptr noundef null, i32 noundef 0, ptr noundef @.str.45, ptr noundef @.str.61, ptr noundef @.str.47, i32 noundef 678)
  call void @abort() #16
  unreachable

30:                                               ; preds = %18
  br label %31

31:                                               ; preds = %30
  br label %32

32:                                               ; preds = %31
  %33 = load ptr, ptr %8, align 8, !tbaa !31
  %34 = load i32, ptr %6, align 4, !tbaa !57
  call void @avio_wb16(ptr noundef %33, i32 noundef %34)
  %35 = load ptr, ptr %8, align 8, !tbaa !31
  %36 = load i32, ptr %5, align 4, !tbaa !57
  call void @avio_wb16(ptr noundef %35, i32 noundef %36)
  call void @llvm.lifetime.end.p0(i64 8, ptr %9) #13
  call void @llvm.lifetime.end.p0(i64 8, ptr %8) #13
  call void @llvm.lifetime.end.p0(i64 8, ptr %7) #13
  ret void
}