; Function Attrs: nounwind uwtable
define internal fastcc void @mxf_write_local_tag(ptr readonly captures(none) %.24.val, ptr %.32.val, i32 noundef %0, i32 noundef range(i32 513, 57308) %1) unnamed_addr #0 {
  br label %4

3:                                                ; preds = %4
  %indvars.iv.next.i = add nuw nsw i64 %indvars.iv.i, 1
  %exitcond.not.i = icmp eq i64 %indvars.iv.next.i, 127
  br i1 %exitcond.not.i, label %8, label %4, !llvm.loop !226

4:                                                ; preds = %3, %2
  %indvars.iv.i = phi i64 [ 0, %2 ], [ %indvars.iv.next.i, %3 ]
  %5 = getelementptr inbounds nuw [127 x %struct.MXFLocalTagPair], ptr @mxf_local_tag_batch, i64 0, i64 %indvars.iv.i
  %6 = load i32, ptr %5, align 4, !tbaa !227
  %7 = icmp eq i32 %6, %1
  br i1 %7, label %mxf_lookup_local_tag.exit, label %3

8:                                                ; preds = %3
  tail call void (ptr, i32, ptr, ...) @av_log(ptr noundef null, i32 noundef 0, ptr noundef nonnull @.str.45, ptr noundef nonnull @.str.57, ptr noundef nonnull @.str.47, i32 noundef 571) #14
  tail call void @abort() #15
  unreachable

mxf_lookup_local_tag.exit:                        ; preds = %4
  %9 = getelementptr inbounds nuw i8, ptr %.24.val, i64 196
  %10 = getelementptr inbounds nuw [127 x i8], ptr %9, i64 0, i64 %indvars.iv.i
  %11 = load i8, ptr %10, align 1, !tbaa !54
  %12 = icmp eq i8 %11, 0
  br i1 %12, label %14, label %13

13:                                               ; preds = %mxf_lookup_local_tag.exit
  tail call void (ptr, i32, ptr, ...) @av_log(ptr noundef null, i32 noundef 0, ptr noundef nonnull @.str.45, ptr noundef nonnull @.str.61, ptr noundef nonnull @.str.47, i32 noundef 678) #14
  tail call void @abort() #15
  unreachable

14:                                               ; preds = %mxf_lookup_local_tag.exit
  tail call void @avio_wb16(ptr noundef %.32.val, i32 noundef %1) #14
  tail call void @avio_wb16(ptr noundef %.32.val, i32 noundef %0) #14
  ret void
}